; Function Attrs: mustprogress nofree norecurse nosync nounwind willreturn memory(read, inaccessiblemem: none) uwtable
define float @Abc_NtkReadDefaultArrivalWorst(ptr noundef readonly captures(none) %0) local_unnamed_addr #1 {
  %2 = getelementptr inbounds nuw i8, ptr %0, i64 264
  %3 = load ptr, ptr %2, align 8
  %4 = load float, ptr %3, align 8
  %5 = fpext float %4 to double
  %6 = getelementptr inbounds nuw i8, ptr %3, i64 4
  %7 = load float, ptr %6, align 4
  %8 = fpext float %7 to double
  %9 = fmul double %8, 5.000000e-01
  %10 = tail call double @llvm.fmuladd.f64(double %5, double 5.000000e-01, double %9)
  %11 = fptrunc double %10 to float
  ret float %11
}